target datalayout = "e-m:e-p270:32:32-p271:32:32-p272:64:64-i64:64-i128:128-f80:128-n8:16:32:64-S128"
target triple = "x86_64-pc-linux-gnu"

%class.ciBytecodeStream = type { ptr, ptr, ptr, ptr, ptr, ptr, ptr, ptr, i32, i32 }
%class.Bytecode = type <{ ptr, i32, [4 x i8] }>
%struct.ByteswapImpl.5 = type { i8 }

@g_assert_poison = external global ptr, align 8
@.str = private unnamed_addr constant [35 x i8] c"src/hotspot/share/ci/ciStreams.cpp\00", align 1
@_ZN9Bytecodes6_flagsE = external global [512 x i16], align 16

; Function Attrs: mustprogress nounwind uwtable
define internal noundef i64 @_ZL14alignment_maskImTnNSt9enable_ifIXcvbsr3std11is_integralIT_EE5valueEiE4typeELi0EES1_S1_(i64 noundef %0) #1 {
  %2 = alloca i64, align 8
  store i64 %0, ptr %2, align 8
  %3 = load i64, ptr %2, align 8
  %4 = sub i64 %3, 1
  ret i64 %4
}

; Function Attrs: mustprogress nounwind uwtable
define linkonce_odr hidden noundef zeroext i16 @_ZNK12ByteswapImplItLm2EEclEt(ptr noundef nonnull align 1 dereferenceable(1) %0, i16 noundef zeroext %1) #1 comdat align 2 {
  %3 = alloca ptr, align 8
  %4 = alloca i16, align 2
  store ptr %0, ptr %3, align 8
  store i16 %1, ptr %4, align 2
  %5 = load i16, ptr %4, align 2
  %6 = call i16 @llvm.bswap.i16(i16 %5)
  ret i16 %6
}

; Function Attrs: mustprogress nounwind uwtable
define linkonce_odr hidden noundef zeroext i1 @_Z10is_alignedImmTnNSt9enable_ifIXcvbsr3std11is_integralIT_EE5valueEiE4typeELi0EEbS1_T0_(i64 noundef %0, i64 noundef %1) #1 comdat {
  %3 = alloca i64, align 8
  %4 = alloca i64, align 8
  store i64 %0, ptr %3, align 8
  store i64 %1, ptr %4, align 8
  %5 = load i64, ptr %3, align 8
  %6 = load i64, ptr %4, align 8
  %7 = call noundef i64 @_ZL14alignment_maskImTnNSt9enable_ifIXcvbsr3std11is_integralIT_EE5valueEiE4typeELi0EES1_S1_(i64 noundef %6)
  %8 = and i64 %5, %7
  %9 = icmp eq i64 %8, 0
  ret i1 %9
}

; Function Attrs: mustprogress nounwind uwtable
define linkonce_odr hidden noundef i32 @_ZN9Bytecodes5flagsEib(i32 noundef %0, i1 noundef zeroext %1) #1 comdat align 2 {
  %3 = alloca i32, align 4
  %4 = alloca i8, align 1
  store i32 %0, ptr %3, align 4
  %5 = zext i1 %1 to i8
  store i8 %5, ptr %4, align 1
  %6 = load i32, ptr %3, align 4
  %7 = load i8, ptr %4, align 1
  %8 = trunc i8 %7 to i1
  %9 = select i1 %8, i32 256, i32 0
  %10 = add nsw i32 %6, %9
  %11 = sext i32 %10 to i64
  %12 = getelementptr inbounds [512 x i16], ptr @_ZN9Bytecodes6_flagsE, i64 0, i64 %11
  %13 = load i16, ptr %12, align 2
  %14 = zext i16 %13 to i32
  ret i32 %14
}

; Function Attrs: mustprogress nounwind uwtable
define linkonce_odr hidden noundef zeroext i16 @_Z8byteswapItTnNSt9enable_ifIXcvbsr3std11is_integralIT_EE5valueEiE4typeELi0EES1_S1_(i16 noundef zeroext %0) #1 comdat {
  %2 = alloca i16, align 2
  %3 = alloca %struct.ByteswapImpl.5, align 1
  store i16 %0, ptr %2, align 2
  %4 = load i16, ptr %2, align 2
  %5 = call noundef zeroext i16 @_ZNK12ByteswapImplItLm2EEclEt(ptr noundef nonnull align 1 dereferenceable(1) %3, i16 noundef zeroext %4)
  ret i16 %5
}

; Function Attrs: mustprogress nounwind uwtable
define linkonce_odr hidden noundef zeroext i1 @_Z10is_alignedIKvmEbPT_T0_(ptr noundef %0, i64 noundef %1) #1 comdat {
  %3 = alloca ptr, align 8
  %4 = alloca i64, align 8
  store ptr %0, ptr %3, align 8
  store i64 %1, ptr %4, align 8
  %5 = load ptr, ptr %3, align 8
  %6 = ptrtoint ptr %5 to i64
  %7 = load i64, ptr %4, align 8
  %8 = call noundef zeroext i1 @_Z10is_alignedImmTnNSt9enable_ifIXcvbsr3std11is_integralIT_EE5valueEiE4typeELi0EEbS1_T0_(i64 noundef %6, i64 noundef %7)
  ret i1 %8
}

; Function Attrs: mustprogress nounwind uwtable
define linkonce_odr hidden noundef zeroext i1 @_ZN9Bytecodes13has_all_flagsENS_4CodeEib(i32 noundef %0, i32 noundef %1, i1 noundef zeroext %2) #1 comdat align 2 {
  %4 = alloca i32, align 4
  %5 = alloca i32, align 4
  %6 = alloca i8, align 1
  store i32 %0, ptr %4, align 4
  store i32 %1, ptr %5, align 4
  %7 = zext i1 %2 to i8
  store i8 %7, ptr %6, align 1
  %8 = load i32, ptr %4, align 4
  %9 = load i8, ptr %6, align 1
  %10 = trunc i8 %9 to i1
  %11 = call noundef i32 @_ZN9Bytecodes5flagsEib(i32 noundef %8, i1 noundef zeroext %10)
  %12 = load i32, ptr %5, align 4
  %13 = and i32 %11, %12
  %14 = load i32, ptr %5, align 4
  %15 = icmp eq i32 %13, %14
  ret i1 %15
}

; Function Attrs: mustprogress nounwind uwtable
define linkonce_odr hidden void @_ZN9Bytecodes5checkENS_4CodeE(i32 noundef %0) #1 comdat align 2 {
  %2 = alloca i32, align 4
  store i32 %0, ptr %2, align 4
  ret void
}

; Function Attrs: mustprogress nounwind uwtable
define linkonce_odr hidden noundef i32 @_ZN9Bytecodes4castEi(i32 noundef %0) #1 comdat align 2 {
  %2 = alloca i32, align 4
  store i32 %0, ptr %2, align 4
  %3 = load i32, ptr %2, align 4
  ret i32 %3
}

; Function Attrs: mustprogress nounwind uwtable
define linkonce_odr hidden noundef zeroext i16 @_ZN5Bytes8get_JavaItEET_Ph(ptr noundef %0) #1 comdat align 2 {
  %2 = alloca ptr, align 8
  %3 = alloca i16, align 2
  store ptr %0, ptr %2, align 8
  %4 = load ptr, ptr %2, align 8
  %5 = call noundef zeroext i16 @_ZN5Bytes10get_nativeItEET_PKv(ptr noundef %4)
  store i16 %5, ptr %3, align 2
  %6 = call noundef zeroext i1 @_ZN6Endian31is_Java_byte_ordering_differentEv()
  br i1 %6, label %7, label %10

7:                                                ; preds = %1
  %8 = load i16, ptr %3, align 2
  %9 = call noundef zeroext i16 @_Z8byteswapItTnNSt9enable_ifIXcvbsr3std11is_integralIT_EE5valueEiE4typeELi0EES1_S1_(i16 noundef zeroext %8)
  store i16 %9, ptr %3, align 2
  br label %10

10:                                               ; preds = %7, %1
  %11 = load i16, ptr %3, align 2
  ret i16 %11
}

; Function Attrs: mustprogress nounwind uwtable
define linkonce_odr hidden noundef zeroext i16 @_ZN5Bytes10get_nativeItEET_PKv(ptr noundef %0) #1 comdat align 2 {
  %2 = alloca ptr, align 8
  %3 = alloca i16, align 2
  store ptr %0, ptr %2, align 8
  %4 = load ptr, ptr %2, align 8
  %5 = call noundef zeroext i1 @_Z10is_alignedIKvmEbPT_T0_(ptr noundef %4, i64 noundef 2)
  br i1 %5, label %6, label %9

6:                                                ; preds = %1
  %7 = load ptr, ptr %2, align 8
  %8 = load i16, ptr %7, align 2
  store i16 %8, ptr %3, align 2
  br label %11

9:                                                ; preds = %1
  %10 = load ptr, ptr %2, align 8
  call void @llvm.memcpy.p0.p0.i64(ptr align 2 %3, ptr align 1 %10, i64 2, i1 false)
  br label %11

11:                                               ; preds = %9, %6
  %12 = load i16, ptr %3, align 2
  ret i16 %12
}

; Function Attrs: mustprogress nounwind uwtable
define linkonce_odr hidden noundef zeroext i1 @_ZN9Bytecodes17native_byte_orderENS_4CodeE(i32 noundef %0) #1 comdat align 2 {
  %2 = alloca i32, align 4
  store i32 %0, ptr %2, align 4
  %3 = load i32, ptr %2, align 4
  call void @_ZN9Bytecodes5checkENS_4CodeE(i32 noundef %3)
  %4 = load i32, ptr %2, align 4
  %5 = call noundef zeroext i1 @_ZN9Bytecodes13has_all_flagsENS_4CodeEib(i32 noundef %4, i32 noundef 128, i1 noundef zeroext false)
  ret i1 %5
}

; Function Attrs: mustprogress nounwind uwtable
define linkonce_odr hidden noundef zeroext i1 @_ZN6Endian31is_Java_byte_ordering_differentEv() #1 comdat align 2 {
  ret i1 true
}

; Function Attrs: mustprogress nounwind uwtable
define linkonce_odr hidden noundef i32 @_ZN9Bytecodes7code_atEPK6MethodPh(ptr noundef %0, ptr noundef %1) #1 comdat align 2 {
  %3 = alloca ptr, align 8
  %4 = alloca ptr, align 8
  %5 = alloca i32, align 4
  store ptr %0, ptr %3, align 8
  store ptr %1, ptr %4, align 8
  %6 = load ptr, ptr %4, align 8
  %7 = load i8, ptr %6, align 1
  %8 = zext i8 %7 to i32
  %9 = call noundef i32 @_ZN9Bytecodes4castEi(i32 noundef %8)
  store i32 %9, ptr %5, align 4
  %10 = load i32, ptr %5, align 4
  %11 = icmp ne i32 %10, 202
  br i1 %11, label %12, label %14

12:                                               ; preds = %2
  %13 = load i32, ptr %5, align 4
  br label %18

14:                                               ; preds = %2
  %15 = load ptr, ptr %3, align 8
  %16 = load ptr, ptr %4, align 8
  %17 = call noundef i32 @_ZN9Bytecodes22non_breakpoint_code_atEPK6MethodPh(ptr noundef %15, ptr noundef %16)
  br label %18

18:                                               ; preds = %14, %12
  %19 = phi i32 [ %13, %12 ], [ %17, %14 ]
  ret i32 %19
}

; Function Attrs: mustprogress nounwind uwtable
define linkonce_odr hidden noundef ptr @_ZNK16ciBytecodeStream7cur_bcpEv(ptr noundef nonnull align 8 dereferenceable(72) %0) #1 comdat align 2 {
  %2 = alloca ptr, align 8
  store ptr %0, ptr %2, align 8
  %3 = load ptr, ptr %2, align 8
  %4 = getelementptr inbounds %class.ciBytecodeStream, ptr %3, i32 0, i32 2
  %5 = load ptr, ptr %4, align 8
  ret ptr %5
}

; Function Attrs: mustprogress nounwind uwtable
define linkonce_odr hidden noundef zeroext i16 @_ZN5Bytes11get_Java_u2EPh(ptr noundef %0) #1 comdat align 2 {
  %2 = alloca ptr, align 8
  store ptr %0, ptr %2, align 8
  %3 = load ptr, ptr %2, align 8
  %4 = call noundef zeroext i16 @_ZN5Bytes8get_JavaItEET_Ph(ptr noundef %3)
  ret i16 %4
}

; Function Attrs: mustprogress nounwind uwtable
define linkonce_odr hidden noundef zeroext i16 @_ZN5Bytes13get_native_u2EPh(ptr noundef %0) #1 comdat align 2 {
  %2 = alloca ptr, align 8
  store ptr %0, ptr %2, align 8
  %3 = load ptr, ptr %2, align 8
  %4 = call noundef zeroext i16 @_ZN5Bytes10get_nativeItEET_PKv(ptr noundef %3)
  ret i16 %4
}

; Function Attrs: mustprogress nounwind uwtable
define linkonce_odr hidden noundef zeroext i1 @_ZN8Bytecode25can_use_native_byte_orderEN9Bytecodes4CodeEb(i32 noundef %0, i1 noundef zeroext %1) #1 comdat align 2 {
  %3 = alloca i32, align 4
  %4 = alloca i8, align 1
  store i32 %0, ptr %3, align 4
  %5 = zext i1 %1 to i8
  store i8 %5, ptr %4, align 1
  %6 = call noundef zeroext i1 @_ZN6Endian31is_Java_byte_ordering_differentEv()
  br i1 %6, label %7, label %10

7:                                                ; preds = %2
  %8 = load i32, ptr %3, align 4
  %9 = call noundef zeroext i1 @_ZN9Bytecodes17native_byte_orderENS_4CodeE(i32 noundef %8)
  br label %10

10:                                               ; preds = %7, %2
  %11 = phi i1 [ true, %2 ], [ %9, %7 ]
  ret i1 %11
}

; Function Attrs: mustprogress nounwind uwtable
define linkonce_odr hidden noundef ptr @_ZNK8Bytecode7addr_atEi(ptr noundef nonnull align 8 dereferenceable(12) %0, i32 noundef %1) #1 comdat align 2 {
  %3 = alloca ptr, align 8
  %4 = alloca i32, align 4
  store ptr %0, ptr %3, align 8
  store i32 %1, ptr %4, align 4
  %5 = load ptr, ptr %3, align 8
  %6 = getelementptr inbounds %class.Bytecode, ptr %5, i32 0, i32 0
  %7 = load ptr, ptr %6, align 8
  %8 = load i32, ptr %4, align 4
  %9 = sext i32 %8 to i64
  %10 = getelementptr inbounds i8, ptr %7, i64 %9
  ret ptr %10
}

; Function Attrs: mustprogress nounwind uwtable
define linkonce_odr hidden void @_ZN8Bytecode17assert_index_sizeEiN9Bytecodes4CodeEb(i32 noundef %0, i32 noundef %1, i1 noundef zeroext %2) #1 comdat align 2 {
  %4 = alloca i32, align 4
  %5 = alloca i32, align 4
  %6 = alloca i8, align 1
  store i32 %0, ptr %4, align 4
  store i32 %1, ptr %5, align 4
  %7 = zext i1 %2 to i8
  store i8 %7, ptr %6, align 1
  ret void
}

; Function Attrs: mustprogress nounwind uwtable
define linkonce_odr hidden void @_ZNK8Bytecode21assert_same_format_asEN9Bytecodes4CodeEb(ptr noundef nonnull align 8 dereferenceable(12) %0, i32 noundef %1, i1 noundef zeroext %2) #1 comdat align 2 {
  %4 = alloca ptr, align 8
  %5 = alloca i32, align 4
  %6 = alloca i8, align 1
  store ptr %0, ptr %4, align 8
  store i32 %1, ptr %5, align 4
  %7 = zext i1 %2 to i8
  store i8 %7, ptr %6, align 1
  ret void
}

; Function Attrs: mustprogress nounwind uwtable
define linkonce_odr hidden noundef i32 @_ZN16ciBytecodeStream13check_definedEN9Bytecodes4CodeE(i32 noundef %0) #1 comdat align 2 {
  %2 = alloca i32, align 4
  store i32 %0, ptr %2, align 4
  %3 = load i32, ptr %2, align 4
  ret i32 %3
}

; Function Attrs: mustprogress nounwind uwtable
define linkonce_odr hidden void @_ZN8BytecodeC2EPK16ciBytecodeStreamPh(ptr noundef nonnull align 8 dereferenceable(12) %0, ptr noundef %1, ptr noundef %2) unnamed_addr #1 comdat align 2 {
  %4 = alloca ptr, align 8
  %5 = alloca ptr, align 8
  %6 = alloca ptr, align 8
  store ptr %0, ptr %4, align 8
  store ptr %1, ptr %5, align 8
  store ptr %2, ptr %6, align 8
  %7 = load ptr, ptr %4, align 8
  %8 = getelementptr inbounds %class.Bytecode, ptr %7, i32 0, i32 0
  %9 = load ptr, ptr %6, align 8
  %10 = icmp ne ptr %9, null
  br i1 %10, label %11, label %13

11:                                               ; preds = %3
  %12 = load ptr, ptr %6, align 8
  br label %16

13:                                               ; preds = %3
  %14 = load ptr, ptr %5, align 8
  %15 = call noundef ptr @_ZNK16ciBytecodeStream7cur_bcpEv(ptr noundef nonnull align 8 dereferenceable(72) %14)
  br label %16

16:                                               ; preds = %13, %11
  %17 = phi ptr [ %12, %11 ], [ %15, %13 ]
  store ptr %17, ptr %8, align 8
  %18 = getelementptr inbounds %class.Bytecode, ptr %7, i32 0, i32 1
  %19 = call noundef ptr @_ZNK8Bytecode7addr_atEi(ptr noundef nonnull align 8 dereferenceable(12) %7, i32 noundef 0)
  %20 = call noundef i32 @_ZN9Bytecodes7code_atEPK6MethodPh(ptr noundef null, ptr noundef %19)
  store i32 %20, ptr %18, align 8
  ret void
}

; Function Attrs: mustprogress nounwind uwtable
define linkonce_odr hidden noundef zeroext i16 @_ZNK8Bytecode12get_index_u2EN9Bytecodes4CodeEb(ptr noundef nonnull align 8 dereferenceable(12) %0, i32 noundef %1, i1 noundef zeroext %2) #1 comdat align 2 {
  %4 = alloca i16, align 2
  %5 = alloca ptr, align 8
  %6 = alloca i32, align 4
  %7 = alloca i8, align 1
  %8 = alloca ptr, align 8
  store ptr %0, ptr %5, align 8
  store i32 %1, ptr %6, align 4
  %9 = zext i1 %2 to i8
  store i8 %9, ptr %7, align 1
  %10 = load ptr, ptr %5, align 8
  %11 = load i32, ptr %6, align 4
  %12 = load i8, ptr %7, align 1
  %13 = trunc i8 %12 to i1
  call void @_ZNK8Bytecode21assert_same_format_asEN9Bytecodes4CodeEb(ptr noundef nonnull align 8 dereferenceable(12) %10, i32 noundef %11, i1 noundef zeroext %13)
  %14 = load i32, ptr %6, align 4
  %15 = load i8, ptr %7, align 1
  %16 = trunc i8 %15 to i1
  call void @_ZN8Bytecode17assert_index_sizeEiN9Bytecodes4CodeEb(i32 noundef 2, i32 noundef %14, i1 noundef zeroext %16)
  %17 = load i8, ptr %7, align 1
  %18 = trunc i8 %17 to i1
  %19 = select i1 %18, i32 2, i32 1
  %20 = call noundef ptr @_ZNK8Bytecode7addr_atEi(ptr noundef nonnull align 8 dereferenceable(12) %10, i32 noundef %19)
  store ptr %20, ptr %8, align 8
  %21 = load i32, ptr %6, align 4
  %22 = load i8, ptr %7, align 1
  %23 = trunc i8 %22 to i1
  %24 = call noundef zeroext i1 @_ZN8Bytecode25can_use_native_byte_orderEN9Bytecodes4CodeEb(i32 noundef %21, i1 noundef zeroext %23)
  br i1 %24, label %25, label %28

25:                                               ; preds = %3
  %26 = load ptr, ptr %8, align 8
  %27 = call noundef zeroext i16 @_ZN5Bytes13get_native_u2EPh(ptr noundef %26)
  store i16 %27, ptr %4, align 2
  br label %31

28:                                               ; preds = %3
  %29 = load ptr, ptr %8, align 8
  %30 = call noundef zeroext i16 @_ZN5Bytes11get_Java_u2EPh(ptr noundef %29)
  store i16 %30, ptr %4, align 2
  br label %31

31:                                               ; preds = %28, %25
  %32 = load i16, ptr %4, align 2
  ret i16 %32
}

; Function Attrs: mustprogress nounwind uwtable
define linkonce_odr hidden noundef zeroext i8 @_ZNK8Bytecode12get_index_u1EN9Bytecodes4CodeE(ptr noundef nonnull align 8 dereferenceable(12) %0, i32 noundef %1) #1 comdat align 2 {
  %3 = alloca ptr, align 8
  %4 = alloca i32, align 4
  store ptr %0, ptr %3, align 8
  store i32 %1, ptr %4, align 4
  %5 = load ptr, ptr %3, align 8
  %6 = load i32, ptr %4, align 4
  call void @_ZNK8Bytecode21assert_same_format_asEN9Bytecodes4CodeEb(ptr noundef nonnull align 8 dereferenceable(12) %5, i32 noundef %6, i1 noundef zeroext false)
  %7 = load i32, ptr %4, align 4
  call void @_ZN8Bytecode17assert_index_sizeEiN9Bytecodes4CodeEb(i32 noundef 1, i32 noundef %7, i1 noundef zeroext false)
  %8 = call noundef ptr @_ZNK8Bytecode7addr_atEi(ptr noundef nonnull align 8 dereferenceable(12) %5, i32 noundef 1)
  %9 = load i8, ptr %8, align 1
  ret i8 %9
}

; Function Attrs: mustprogress nounwind uwtable
define linkonce_odr hidden noundef i32 @_ZNK16ciBytecodeStream10cur_bc_rawEv(ptr noundef nonnull align 8 dereferenceable(72) %0) #1 comdat align 2 {
  %2 = alloca ptr, align 8
  store ptr %0, ptr %2, align 8
  %3 = load ptr, ptr %2, align 8
  %4 = getelementptr inbounds %class.ciBytecodeStream, ptr %3, i32 0, i32 9
  %5 = load i32, ptr %4, align 4
  %6 = call noundef i32 @_ZN16ciBytecodeStream13check_definedEN9Bytecodes4CodeE(i32 noundef %5)
  ret i32 %6
}

; Function Attrs: mustprogress nounwind uwtable
define linkonce_odr hidden { ptr, i32 } @_ZNK16ciBytecodeStream8bytecodeEv(ptr noundef nonnull align 8 dereferenceable(72) %0) #1 comdat align 2 {
  %2 = alloca %class.Bytecode, align 8
  %3 = alloca ptr, align 8
  store ptr %0, ptr %3, align 8
  %4 = load ptr, ptr %3, align 8
  %5 = getelementptr inbounds %class.ciBytecodeStream, ptr %4, i32 0, i32 2
  %6 = load ptr, ptr %5, align 8
  call void @_ZN8BytecodeC2EPK16ciBytecodeStreamPh(ptr noundef nonnull align 8 dereferenceable(12) %2, ptr noundef %4, ptr noundef %6)
  %7 = load { ptr, i32 }, ptr %2, align 8
  ret { ptr, i32 } %7
}

; Function Attrs: mustprogress nounwind uwtable
define linkonce_odr hidden noundef i32 @_ZN16ciBytecodeStream10check_javaEN9Bytecodes4CodeE(i32 noundef %0) #1 comdat align 2 {
  %2 = alloca i32, align 4
  store i32 %0, ptr %2, align 4
  %3 = load i32, ptr %2, align 4
  ret i32 %3
}

; Function Attrs: mustprogress nounwind uwtable
define linkonce_odr hidden noundef i32 @_ZNK16ciBytecodeStream12get_index_u2Eb(ptr noundef nonnull align 8 dereferenceable(72) %0, i1 noundef zeroext %1) #1 comdat align 2 {
  %3 = alloca ptr, align 8
  %4 = alloca i8, align 1
  %5 = alloca %class.Bytecode, align 8
  store ptr %0, ptr %3, align 8
  %6 = zext i1 %1 to i8
  store i8 %6, ptr %4, align 1
  %7 = load ptr, ptr %3, align 8
  %8 = call { ptr, i32 } @_ZNK16ciBytecodeStream8bytecodeEv(ptr noundef nonnull align 8 dereferenceable(72) %7)
  %9 = getelementptr inbounds { ptr, i32 }, ptr %5, i32 0, i32 0
  %10 = extractvalue { ptr, i32 } %8, 0
  store ptr %10, ptr %9, align 8
  %11 = getelementptr inbounds { ptr, i32 }, ptr %5, i32 0, i32 1
  %12 = extractvalue { ptr, i32 } %8, 1
  store i32 %12, ptr %11, align 8
  %13 = call noundef i32 @_ZNK16ciBytecodeStream10cur_bc_rawEv(ptr noundef nonnull align 8 dereferenceable(72) %7)
  %14 = load i8, ptr %4, align 1
  %15 = trunc i8 %14 to i1
  %16 = call noundef zeroext i16 @_ZNK8Bytecode12get_index_u2EN9Bytecodes4CodeEb(ptr noundef nonnull align 8 dereferenceable(12) %5, i32 noundef %13, i1 noundef zeroext %15)
  %17 = zext i16 %16 to i32
  ret i32 %17
}

; Function Attrs: mustprogress nounwind uwtable
define linkonce_odr hidden noundef i32 @_ZNK16ciBytecodeStream12get_index_u1Ev(ptr noundef nonnull align 8 dereferenceable(72) %0) #1 comdat align 2 {
  %2 = alloca ptr, align 8
  %3 = alloca %class.Bytecode, align 8
  store ptr %0, ptr %2, align 8
  %4 = load ptr, ptr %2, align 8
  %5 = call { ptr, i32 } @_ZNK16ciBytecodeStream8bytecodeEv(ptr noundef nonnull align 8 dereferenceable(72) %4)
  %6 = getelementptr inbounds { ptr, i32 }, ptr %3, i32 0, i32 0
  %7 = extractvalue { ptr, i32 } %5, 0
  store ptr %7, ptr %6, align 8
  %8 = getelementptr inbounds { ptr, i32 }, ptr %3, i32 0, i32 1
  %9 = extractvalue { ptr, i32 } %5, 1
  store i32 %9, ptr %8, align 8
  %10 = call noundef i32 @_ZNK16ciBytecodeStream10cur_bc_rawEv(ptr noundef nonnull align 8 dereferenceable(72) %4)
  %11 = call noundef zeroext i8 @_ZNK8Bytecode12get_index_u1EN9Bytecodes4CodeE(ptr noundef nonnull align 8 dereferenceable(12) %3, i32 noundef %10)
  %12 = zext i8 %11 to i32
  ret i32 %12
}

; Function Attrs: mustprogress nounwind uwtable
define linkonce_odr hidden noundef i32 @_ZNK16ciBytecodeStream6cur_bcEv(ptr noundef nonnull align 8 dereferenceable(72) %0) #1 comdat align 2 {
  %2 = alloca ptr, align 8
  store ptr %0, ptr %2, align 8
  %3 = load ptr, ptr %2, align 8
  %4 = getelementptr inbounds %class.ciBytecodeStream, ptr %3, i32 0, i32 8
  %5 = load i32, ptr %4, align 8
  %6 = call noundef i32 @_ZN16ciBytecodeStream10check_javaEN9Bytecodes4CodeE(i32 noundef %5)
  ret i32 %6
}

; Function Attrs: mustprogress nounwind uwtable
define hidden noundef i32 @_ZNK16ciBytecodeStream15get_klass_indexEv(ptr noundef nonnull align 8 dereferenceable(72) %0) #1 align 2 {
  %2 = alloca i32, align 4
  %3 = alloca ptr, align 8
  store ptr %0, ptr %3, align 8
  %4 = load ptr, ptr %3, align 8
  %5 = call noundef i32 @_ZNK16ciBytecodeStream6cur_bcEv(ptr noundef nonnull align 8 dereferenceable(72) %4)
  switch i32 %5, label %10 [
    i32 18, label %6
    i32 19, label %8
    i32 20, label %8
    i32 192, label %8
    i32 193, label %8
    i32 189, label %8
    i32 197, label %8
    i32 187, label %8
    i32 188, label %8
  ]

6:                                                ; preds = %1
  %7 = call noundef i32 @_ZNK16ciBytecodeStream12get_index_u1Ev(ptr noundef nonnull align 8 dereferenceable(72) %4)
  store i32 %7, ptr %2, align 4
  br label %14

8:                                                ; preds = %1, %1, %1, %1, %1, %1, %1, %1
  %9 = call noundef i32 @_ZNK16ciBytecodeStream12get_index_u2Eb(ptr noundef nonnull align 8 dereferenceable(72) %4, i1 noundef zeroext false)
  store i32 %9, ptr %2, align 4
  br label %14

10:                                               ; preds = %1
  br label %11

11:                                               ; preds = %10
  %12 = load ptr, ptr @g_assert_poison, align 8
  store i8 88, ptr %12, align 1
  call void @_Z28report_should_not_reach_herePKci(ptr noundef @.str, i32 noundef 179) #7
  unreachable

13:                                               ; No predecessors!
  store i32 0, ptr %2, align 4
  br label %14

14:                                               ; preds = %13, %8, %6
  %15 = load i32, ptr %2, align 4
  ret i32 %15
}