; Function Attrs: mustprogress nounwind uwtable
define hidden noundef i32 @_ZNK16ciBytecodeStream15get_klass_indexEv(ptr nocapture noundef nonnull readonly align 8 dereferenceable(72) %0) local_unnamed_addr #0 align 2 {
  %2 = getelementptr inbounds i8, ptr %0, i64 64
  %3 = load i32, ptr %2, align 8
  switch i32 %3, label %28 [
    i32 18, label %4
    i32 19, label %13
    i32 20, label %13
    i32 192, label %13
    i32 193, label %13
    i32 189, label %13
    i32 197, label %13
    i32 187, label %13
    i32 188, label %13
  ]

4:                                                ; preds = %1
  %5 = getelementptr inbounds i8, ptr %0, i64 16
  %6 = load ptr, ptr %5, align 8
  %7 = load i8, ptr %6, align 1
  %.not.i.i.i.i = icmp eq i8 %7, -54
  br i1 %.not.i.i.i.i, label %8, label %_ZNK16ciBytecodeStream12get_index_u1Ev.exit

8:                                                ; preds = %4
  %9 = tail call noundef i32 @_ZN9Bytecodes22non_breakpoint_code_atEPK6MethodPh(ptr noundef null, ptr noundef nonnull %6) #8
  br label %_ZNK16ciBytecodeStream12get_index_u1Ev.exit

_ZNK16ciBytecodeStream12get_index_u1Ev.exit:      ; preds = %4, %8
  %10 = getelementptr inbounds i8, ptr %6, i64 1
  %11 = load i8, ptr %10, align 1
  %12 = zext i8 %11 to i32
  br label %30

13:                                               ; preds = %1, %1, %1, %1, %1, %1, %1, %1
  %14 = getelementptr inbounds i8, ptr %0, i64 16
  %15 = load ptr, ptr %14, align 8
  %16 = load i8, ptr %15, align 1
  %.not.i.i.i.i1 = icmp eq i8 %16, -54
  br i1 %.not.i.i.i.i1, label %17, label %_ZNK16ciBytecodeStream12get_index_u2Eb.exit

17:                                               ; preds = %13
  %18 = tail call noundef i32 @_ZN9Bytecodes22non_breakpoint_code_atEPK6MethodPh(ptr noundef null, ptr noundef nonnull %15) #8
  br label %_ZNK16ciBytecodeStream12get_index_u2Eb.exit

_ZNK16ciBytecodeStream12get_index_u2Eb.exit:      ; preds = %13, %17
  %19 = getelementptr inbounds i8, ptr %0, i64 68
  %20 = load i32, ptr %19, align 4
  %21 = getelementptr inbounds i8, ptr %15, i64 1
  %22 = sext i32 %20 to i64
  %23 = getelementptr inbounds [512 x i16], ptr @_ZN9Bytecodes6_flagsE, i64 0, i64 %22
  %24 = load i16, ptr %23, align 2
  %25 = and i16 %24, 128
  %.not.i.i = icmp eq i16 %25, 0
  %.0.i.i.i.i.i = load i16, ptr %21, align 1
  %26 = tail call i16 @llvm.bswap.i16(i16 %.0.i.i.i.i.i)
  %.0.i.i = select i1 %.not.i.i, i16 %26, i16 %.0.i.i.i.i.i
  %27 = zext i16 %.0.i.i to i32
  br label %30

28:                                               ; preds = %1
  %29 = load ptr, ptr @g_assert_poison, align 8
  store i8 88, ptr %29, align 1
  tail call void @_Z28report_should_not_reach_herePKci(ptr noundef nonnull @.str, i32 noundef 179) #9
  unreachable

30:                                               ; preds = %_ZNK16ciBytecodeStream12get_index_u2Eb.exit, %_ZNK16ciBytecodeStream12get_index_u1Ev.exit
  %.0 = phi i32 [ %27, %_ZNK16ciBytecodeStream12get_index_u2Eb.exit ], [ %12, %_ZNK16ciBytecodeStream12get_index_u1Ev.exit ]
  ret i32 %.0
}